; Function Attrs: mustprogress nofree norecurse nounwind willreturn memory(readwrite, inaccessiblemem: none) uwtable
define noundef zeroext i1 @_ZTv0_n64_NK5arrow2io16FileOutputStream6closedEv(ptr nocapture noundef readonly %this) unnamed_addr #8 align 2 personality ptr @__gxx_personality_v0 {
entry:
  %0 = load ptr, ptr %this, align 8
  %1 = getelementptr inbounds i8, ptr %0, i64 -64
  %2 = load i64, ptr %1, align 8
  %3 = getelementptr inbounds i8, ptr %this, i64 %2
  %impl_.i = getelementptr inbounds i8, ptr %3, i64 8
  %4 = load ptr, ptr %impl_.i, align 8
  %fd_.i.i = getelementptr inbounds i8, ptr %4, i64 48
  %5 = load atomic i32, ptr %fd_.i.i seq_cst, align 4
  %cmp.i.i.not.i = icmp eq i32 %5, -1
  ret i1 %cmp.i.i.not.i
}